target datalayout = "e-m:e-p270:32:32-p271:32:32-p272:64:64-i64:64-i128:128-f80:128-n8:16:32:64-S128"
target triple = "x86_64-pc-linux-gnu"

@_ZN4llvm17InstructionSelect2IDE = external global i8, align 1

; Function Attrs: mustprogress nounwind uwtable
define internal noundef zeroext i1 @_ZN12_GLOBAL__N_113X86PassConfig26addGlobalInstructionSelectEv(ptr noundef nonnull align 8 dereferenceable(134) %0) unnamed_addr #1 align 2 {
  %2 = alloca ptr, align 8
  store ptr %0, ptr %2, align 8
  %3 = load ptr, ptr %2, align 8
  %4 = call noalias noundef nonnull ptr @_Znwm(i64 noundef 96) #18
  %5 = call noundef i32 @_ZNK4llvm16TargetPassConfig11getOptLevelEv(ptr noundef nonnull align 8 dereferenceable(134) %3)
  call void @_ZN4llvm17InstructionSelectC1ENS_15CodeGenOptLevelERc(ptr noundef nonnull align 8 dereferenceable(92) %4, i32 noundef %5, ptr noundef nonnull align 1 dereferenceable(1) @_ZN4llvm17InstructionSelect2IDE)
  call void @_ZN4llvm16TargetPassConfig7addPassEPNS_4PassE(ptr noundef nonnull align 8 dereferenceable(134) %3, ptr noundef %4)
  %6 = call noundef zeroext i1 @_ZNK4llvm16TargetPassConfig24isGlobalISelAbortEnabledEv(ptr noundef nonnull align 8 dereferenceable(134) %3)
  br i1 %6, label %7, label %9

7:                                                ; preds = %1
  %8 = call noundef ptr @_ZN4llvm26createX86GlobalBaseRegPassEv()
  call void @_ZN4llvm16TargetPassConfig7addPassEPNS_4PassE(ptr noundef nonnull align 8 dereferenceable(134) %3, ptr noundef %8)
  br label %9

9:                                                ; preds = %7, %1
  ret i1 false
}