; Function Attrs: mustprogress nounwind uwtable
define internal noundef zeroext i1 @_ZN12_GLOBAL__N_113X86PassConfig26addGlobalInstructionSelectEv(ptr noundef nonnull align 8 dereferenceable(134) %0) unnamed_addr #0 align 2 {
  %2 = tail call noalias noundef nonnull dereferenceable(96) ptr @_Znwm(i64 noundef 96) #23
  %3 = tail call noundef i32 @_ZNK4llvm16TargetPassConfig11getOptLevelEv(ptr noundef nonnull align 8 dereferenceable(134) %0) #21
  tail call void @_ZN4llvm17InstructionSelectC1ENS_15CodeGenOptLevelERc(ptr noundef nonnull align 8 dereferenceable(92) %2, i32 noundef %3, ptr noundef nonnull align 1 dereferenceable(1) @_ZN4llvm17InstructionSelect2IDE) #21
  tail call void @_ZN4llvm16TargetPassConfig7addPassEPNS_4PassE(ptr noundef nonnull align 8 dereferenceable(134) %0, ptr noundef nonnull %2) #21
  %4 = tail call noundef zeroext i1 @_ZNK4llvm16TargetPassConfig24isGlobalISelAbortEnabledEv(ptr noundef nonnull align 8 dereferenceable(134) %0) #21
  br i1 %4, label %5, label %7

5:                                                ; preds = %1
  %6 = tail call noundef ptr @_ZN4llvm26createX86GlobalBaseRegPassEv() #21
  tail call void @_ZN4llvm16TargetPassConfig7addPassEPNS_4PassE(ptr noundef nonnull align 8 dereferenceable(134) %0, ptr noundef %6) #21
  br label %7

7:                                                ; preds = %5, %1
  ret i1 false
}